; Function Attrs: mustprogress uwtable
define dso_local void @_ZNK17cmGlobalGenerator16GenerateRuleFileERKNSt7__cxx1112basic_stringIcSt11char_traitsIcESaIcEEE(ptr dead_on_unwind noalias writable sret(%"class.std::__cxx11::basic_string") align 8 %0, ptr noundef nonnull align 8 dereferenceable(1778) %1, ptr noundef nonnull align 8 dereferenceable(32) %2) unnamed_addr #3 align 2 personality ptr @__gxx_personality_v0 {
  %4 = alloca [2 x %"struct.std::pair.1209"], align 8
  call void @llvm.lifetime.start.p0(i64 48, ptr nonnull %4)
  %5 = tail call { i64, ptr } @_ZNKSt7__cxx1112basic_stringIcSt11char_traitsIcESaIcEEcvSt17basic_string_viewIcS2_EEv(ptr noundef nonnull align 8 dereferenceable(32) %2) #23, !noalias !784
  %6 = extractvalue { i64, ptr } %5, 0
  %7 = extractvalue { i64, ptr } %5, 1
  store i64 %6, ptr %4, align 8, !alias.scope !787, !noalias !784
  %.sroa.2.0..sroa_idx.i.i = getelementptr inbounds i8, ptr %4, i64 8
  store ptr %7, ptr %.sroa.2.0..sroa_idx.i.i, align 8, !alias.scope !787, !noalias !784
  %8 = getelementptr inbounds i8, ptr %4, i64 16
  store ptr null, ptr %8, align 8, !alias.scope !787, !noalias !784
  %9 = getelementptr inbounds i8, ptr %4, i64 24
  store i64 5, ptr %9, align 8, !alias.scope !790, !noalias !784
  %.sroa.2.0..sroa_idx.i6.i = getelementptr inbounds i8, ptr %4, i64 32
  store ptr @.str.258, ptr %.sroa.2.0..sroa_idx.i6.i, align 8, !alias.scope !790, !noalias !784
  %10 = getelementptr inbounds i8, ptr %4, i64 40
  store ptr null, ptr %10, align 8, !alias.scope !790, !noalias !784
  call void @_Z10cmCatViewsSt16initializer_listISt4pairISt17basic_string_viewIcSt11char_traitsIcEEPNSt7__cxx1112basic_stringIcS3_SaIcEEEEE(ptr dead_on_unwind writable sret(%"class.std::__cxx11::basic_string") align 8 %0, ptr nonnull %4, i64 2)
  call void @llvm.lifetime.end.p0(i64 48, ptr nonnull %4)
  %11 = load ptr, ptr %1, align 8
  %12 = getelementptr inbounds i8, ptr %11, i64 184
  %13 = load ptr, ptr %12, align 8
  %14 = invoke noundef ptr %13(ptr noundef nonnull align 8 dereferenceable(1778) %1)
          to label %15 unwind label %20

15:                                               ; preds = %3
  %.not = icmp eq ptr %14, null
  br i1 %.not, label %22, label %16

16:                                               ; preds = %15
  %17 = load i8, ptr %14, align 1
  %18 = icmp eq i8 %17, 36
  br i1 %18, label %19, label %22

19:                                               ; preds = %16
  invoke void @_ZN5cmsys11SystemTools13ReplaceStringERNSt7__cxx1112basic_stringIcSt11char_traitsIcESaIcEEEPKcS9_(ptr noundef nonnull align 8 dereferenceable(32) %0, ptr noundef nonnull %14, ptr noundef nonnull @.str.46)
          to label %22 unwind label %20

20:                                               ; preds = %19, %3
  %21 = landingpad { ptr, i32 }
          cleanup
  call void @_ZNSt7__cxx1112basic_stringIcSt11char_traitsIcESaIcEED1Ev(ptr noundef nonnull align 8 dereferenceable(32) %0) #23
  resume { ptr, i32 } %21

22:                                               ; preds = %15, %16, %19
  ret void
}